; Function Attrs: mustprogress nounwind uwtable
define dso_local void @_ZN23btPolyhedralConvexShapeD2Ev(ptr noundef nonnull align 8 dereferenceable(80) %this) unnamed_addr #2 align 2 personality ptr @__gxx_personality_v0 {
entry:
  store ptr getelementptr inbounds ({ [34 x ptr] }, ptr @_ZTV23btPolyhedralConvexShape, i64 0, i32 0, i64 2), ptr %this, align 8
  %m_polyhedron = getelementptr inbounds i8, ptr %this, i64 72
  %0 = load ptr, ptr %m_polyhedron, align 8
  %tobool.not = icmp eq ptr %0, null
  br i1 %tobool.not, label %if.end, label %if.then

if.then:                                          ; preds = %entry
  %vtable = load ptr, ptr %0, align 8
  %1 = load ptr, ptr %vtable, align 8
  tail call void %1(ptr noundef nonnull align 8 dereferenceable(172) %0) #14
  %2 = load ptr, ptr %m_polyhedron, align 8
  invoke void @_Z21btAlignedFreeInternalPv(ptr noundef %2)
          to label %if.end unwind label %terminate.lpad

if.end:                                           ; preds = %if.then, %entry
  tail call void @_ZN13btConvexShapeD2Ev(ptr noundef nonnull align 8 dereferenceable(32) %this) #14
  ret void

terminate.lpad:                                   ; preds = %if.then
  %3 = landingpad { ptr, i32 }
          catch ptr null
  %4 = extractvalue { ptr, i32 } %3, 0
  tail call void @__clang_call_terminate(ptr %4) #15
  unreachable
}